; Function Attrs: null_pointer_is_valid sspstrong uwtable
define ptr @fragment_add_seq_next(ptr noundef readonly captures(none) %0, ptr noundef %1, i32 noundef %2, ptr noundef %3, i32 noundef %4, ptr noundef %5, i32 noundef %6, i1 noundef zeroext %7) local_unnamed_addr #2 {
  %9 = alloca %struct._reassembled_key, align 4
  %10 = alloca ptr, align 8
  call void @llvm.lifetime.start.p0(i64 8, ptr nonnull %9) #18
  call void @llvm.lifetime.start.p0(i64 8, ptr nonnull %10) #18
  %11 = getelementptr inbounds nuw i8, ptr %3, i64 80
  %12 = load ptr, ptr %11, align 8
  %13 = getelementptr inbounds nuw i8, ptr %12, i64 57
  %14 = load i16, ptr %13, align 1
  %15 = and i16 %14, 8
  %.not.i = icmp eq i16 %15, 0
  br i1 %.not.i, label %23, label %16

16:                                               ; preds = %8
  %17 = getelementptr inbounds nuw i8, ptr %3, i64 20
  %18 = load i32, ptr %17, align 4
  %19 = getelementptr inbounds nuw i8, ptr %9, i64 4
  store i32 %18, ptr %19, align 4
  store i32 %4, ptr %9, align 4
  %20 = getelementptr inbounds nuw i8, ptr %0, i64 8
  %21 = load ptr, ptr %20, align 8
  %22 = call ptr @g_hash_table_lookup(ptr noundef %21, ptr noundef nonnull %9)
  br label %fragment_add_seq_check_work.exit

23:                                               ; preds = %8
  %24 = call fastcc ptr @fragment_add_seq_common(ptr noundef readonly %0, ptr noundef %1, i32 noundef %2, ptr noundef %3, i32 noundef %4, ptr noundef %5, i32 noundef 0, i32 noundef %6, i1 noundef zeroext %7, i32 noundef 1, ptr noundef nonnull %10)
  %.not23.i = icmp eq ptr %24, null
  br i1 %.not23.i, label %fragment_add_seq_check_work.exit, label %25

25:                                               ; preds = %23
  %26 = load ptr, ptr %10, align 8
  %.not24.i = icmp eq ptr %26, null
  br i1 %.not24.i, label %29, label %27

27:                                               ; preds = %25
  %.val.i = load ptr, ptr %0, align 8
  %28 = call i32 @g_hash_table_remove(ptr noundef %.val.i, ptr noundef nonnull %26)
  br label %29

29:                                               ; preds = %27, %25
  call fastcc void @fragment_reassembled(ptr noundef readonly %0, ptr noundef nonnull %24, ptr noundef %3, i32 noundef %4)
  br label %fragment_add_seq_check_work.exit

fragment_add_seq_check_work.exit:                 ; preds = %16, %23, %29
  %.0.i = phi ptr [ %22, %16 ], [ %24, %29 ], [ null, %23 ]
  call void @llvm.lifetime.end.p0(i64 8, ptr nonnull %10) #18
  call void @llvm.lifetime.end.p0(i64 8, ptr nonnull %9) #18
  ret ptr %.0.i
}